target datalayout = "e-m:e-p270:32:32-p271:32:32-p272:64:64-i64:64-i128:128-f80:128-n8:16:32:64-S128"
target triple = "x86_64-pc-linux-gnu"

@g_assert_poison = external global ptr, align 8
@.str = private unnamed_addr constant [41 x i8] c"src/hotspot/share/opto/mathexactnode.cpp\00", align 1
@.str.4 = private unnamed_addr constant [36 x i8] c"sub() should not be called for '%s'\00", align 1
@NodeClassNames = external global [0 x ptr], align 8
@_ZN7TypeInt2CCE = external global ptr, align 8

; Function Attrs: mustprogress nounwind uwtable
define hidden noundef ptr @_ZNK12OverflowNode3subEPK4TypeS2_(ptr noundef nonnull align 8 dereferenceable(52) %0, ptr noundef %1, ptr noundef %2) unnamed_addr #1 align 2 {
  %4 = alloca ptr, align 8
  %5 = alloca ptr, align 8
  %6 = alloca ptr, align 8
  store ptr %0, ptr %4, align 8
  store ptr %1, ptr %5, align 8
  store ptr %2, ptr %6, align 8
  %7 = load ptr, ptr %4, align 8
  br label %8

8:                                                ; preds = %3
  %9 = load ptr, ptr @g_assert_poison, align 8
  store i8 88, ptr %9, align 1
  %10 = load ptr, ptr %7, align 8
  %11 = getelementptr inbounds ptr, ptr %10, i64 0
  %12 = load ptr, ptr %11, align 8
  %13 = call noundef i32 %12(ptr noundef nonnull align 8 dereferenceable(52) %7)
  %14 = sext i32 %13 to i64
  %15 = getelementptr inbounds [0 x ptr], ptr @NodeClassNames, i64 0, i64 %14
  %16 = load ptr, ptr %15, align 8
  call void (i32, ptr, i32, ptr, ...) @_Z12report_fatal11VMErrorTypePKciS1_z(i32 noundef -536870912, ptr noundef @.str, i32 noundef 180, ptr noundef @.str.4, ptr noundef %16) #5
  unreachable

17:                                               ; No predecessors!
  %18 = load ptr, ptr @_ZN7TypeInt2CCE, align 8
  ret ptr %18
}